; Function Attrs: mustprogress nounwind uwtable
define internal void @_ZN12_GLOBAL__N_124AArch64TargetAsmStreamer22emitARM64WinCFISaveRegEji(ptr nocapture noundef nonnull readonly align 8 dereferenceable(32) %0, i32 noundef %1, i32 noundef %2) unnamed_addr #0 align 2 {
  %4 = getelementptr inbounds nuw i8, ptr %0, i64 24
  %5 = load ptr, ptr %4, align 8
  %6 = getelementptr inbounds nuw i8, ptr %5, i64 24
  %7 = load ptr, ptr %6, align 8
  %8 = getelementptr inbounds nuw i8, ptr %5, i64 32
  %9 = load ptr, ptr %8, align 8
  %10 = ptrtoint ptr %7 to i64
  %11 = ptrtoint ptr %9 to i64
  %12 = sub i64 %10, %11
  %13 = icmp ult i64 %12, 16
  br i1 %13, label %14, label %16

14:                                               ; preds = %3
  %15 = tail call noundef nonnull align 8 dereferenceable(48) ptr @_ZN4llvm11raw_ostream5writeEPKcm(ptr noundef nonnull align 8 dereferenceable(48) %5, ptr noundef nonnull @.str.12, i64 noundef 16) #12
  br label %_ZN4llvm11raw_ostreamlsEPKc.exit

16:                                               ; preds = %3
  tail call void @llvm.memcpy.p0.p0.i64(ptr noundef nonnull align 1 dereferenceable(16) %9, ptr noundef nonnull align 1 dereferenceable(16) @.str.12, i64 16, i1 false)
  %17 = load ptr, ptr %8, align 8
  %18 = getelementptr inbounds i8, ptr %17, i64 16
  store ptr %18, ptr %8, align 8
  br label %_ZN4llvm11raw_ostreamlsEPKc.exit

_ZN4llvm11raw_ostreamlsEPKc.exit:                 ; preds = %14, %16
  %.0.i.i = phi ptr [ %15, %14 ], [ %5, %16 ]
  %19 = zext i32 %1 to i64
  %20 = tail call noundef nonnull align 8 dereferenceable(48) ptr @_ZN4llvm11raw_ostreamlsEm(ptr noundef nonnull align 8 dereferenceable(48) %.0.i.i, i64 noundef %19) #12
  %21 = getelementptr inbounds nuw i8, ptr %20, i64 24
  %22 = load ptr, ptr %21, align 8
  %23 = getelementptr inbounds nuw i8, ptr %20, i64 32
  %24 = load ptr, ptr %23, align 8
  %25 = ptrtoint ptr %22 to i64
  %26 = ptrtoint ptr %24 to i64
  %27 = sub i64 %25, %26
  %28 = icmp ult i64 %27, 2
  br i1 %28, label %29, label %31

29:                                               ; preds = %_ZN4llvm11raw_ostreamlsEPKc.exit
  %30 = tail call noundef nonnull align 8 dereferenceable(48) ptr @_ZN4llvm11raw_ostream5writeEPKcm(ptr noundef nonnull align 8 dereferenceable(48) %20, ptr noundef nonnull @.str.13, i64 noundef 2) #12
  br label %_ZN4llvm11raw_ostreamlsEPKc.exit4

31:                                               ; preds = %_ZN4llvm11raw_ostreamlsEPKc.exit
  store i16 8236, ptr %24, align 1
  %32 = load ptr, ptr %23, align 8
  %33 = getelementptr inbounds i8, ptr %32, i64 2
  store ptr %33, ptr %23, align 8
  br label %_ZN4llvm11raw_ostreamlsEPKc.exit4

_ZN4llvm11raw_ostreamlsEPKc.exit4:                ; preds = %29, %31
  %.0.i.i3 = phi ptr [ %30, %29 ], [ %20, %31 ]
  %34 = sext i32 %2 to i64
  %35 = tail call noundef nonnull align 8 dereferenceable(48) ptr @_ZN4llvm11raw_ostreamlsEl(ptr noundef nonnull align 8 dereferenceable(48) %.0.i.i3, i64 noundef %34) #12
  %36 = getelementptr inbounds nuw i8, ptr %35, i64 24
  %37 = load ptr, ptr %36, align 8
  %38 = getelementptr inbounds nuw i8, ptr %35, i64 32
  %39 = load ptr, ptr %38, align 8
  %40 = icmp eq ptr %37, %39
  br i1 %40, label %41, label %43

41:                                               ; preds = %_ZN4llvm11raw_ostreamlsEPKc.exit4
  %42 = tail call noundef nonnull align 8 dereferenceable(48) ptr @_ZN4llvm11raw_ostream5writeEPKcm(ptr noundef nonnull align 8 dereferenceable(48) %35, ptr noundef nonnull @.str.6, i64 noundef 1) #12
  br label %_ZN4llvm11raw_ostreamlsEPKc.exit7

43:                                               ; preds = %_ZN4llvm11raw_ostreamlsEPKc.exit4
  store i8 10, ptr %39, align 1
  %44 = load ptr, ptr %38, align 8
  %45 = getelementptr inbounds i8, ptr %44, i64 1
  store ptr %45, ptr %38, align 8
  br label %_ZN4llvm11raw_ostreamlsEPKc.exit7

_ZN4llvm11raw_ostreamlsEPKc.exit7:                ; preds = %41, %43
  ret void
}